; ModuleID = '52/4755.c'
source_filename = "52/4755.c"
target datalayout = "e-m:e-p270:32:32-p271:32:32-p272:64:64-i64:64-f80:128-n8:16:32:64-S128"
target triple = "x86_64-pc-linux-gnu"

@.str = private unnamed_addr constant [6 x i8] c"%d %d\00", align 1
@.str.1 = private unnamed_addr constant [3 x i8] c"%d\00", align 1
@.str.2 = private unnamed_addr constant [2 x i8] c" \00", align 1

; Function Attrs: noinline nounwind uwtable
define dso_local void @main() #0 {
  %1 = alloca i32, align 4
  %2 = alloca i32, align 4
  %3 = alloca i32, align 4
  %4 = alloca [50 x i32], align 16
  %5 = call i32 (i8*, ...) @__isoc99_scanf(i8* getelementptr inbounds ([6 x i8], [6 x i8]* @.str, i64 0, i64 0), i32* %1, i32* %2)
  store i32 0, i32* %3, align 4
  br label %6

6:                                                ; preds = %15, %0
  %7 = load i32, i32* %3, align 4
  %8 = load i32, i32* %1, align 4
  %9 = icmp slt i32 %7, %8
  br i1 %9, label %10, label %18

10:                                               ; preds = %6
  %11 = load i32, i32* %3, align 4
  %12 = sext i32 %11 to i64
  %13 = getelementptr inbounds [50 x i32], [50 x i32]* %4, i64 0, i64 %12
  %14 = call i32 (i8*, ...) @__isoc99_scanf(i8* getelementptr inbounds ([3 x i8], [3 x i8]* @.str.1, i64 0, i64 0), i32* %13)
  br label %15

15:                                               ; preds = %10
  %16 = load i32, i32* %3, align 4
  %17 = add nsw i32 %16, 1
  store i32 %17, i32* %3, align 4
  br label %6

18:                                               ; preds = %6
  %19 = load i32, i32* %1, align 4
  %20 = sub nsw i32 %19, 1
  store i32 %20, i32* %3, align 4
  br label %21

21:                                               ; preds = %41, %18
  %22 = load i32, i32* %3, align 4
  %23 = load i32, i32* %2, align 4
  %24 = icmp sge i32 %22, %23
  br i1 %24, label %25, label %44

25:                                               ; preds = %21
  %26 = load i32, i32* %3, align 4
  %27 = sext i32 %26 to i64
  %28 = getelementptr inbounds [50 x i32], [50 x i32]* %4, i64 0, i64 %27
  %29 = load i32, i32* %28, align 4
  %30 = mul nsw i32 %29, 100
  %31 = load i32, i32* %3, align 4
  %32 = load i32, i32* %2, align 4
  %33 = sub nsw i32 %31, %32
  %34 = sext i32 %33 to i64
  %35 = getelementptr inbounds [50 x i32], [50 x i32]* %4, i64 0, i64 %34
  %36 = load i32, i32* %35, align 4
  %37 = add nsw i32 %30, %36
  %38 = load i32, i32* %3, align 4
  %39 = sext i32 %38 to i64
  %40 = getelementptr inbounds [50 x i32], [50 x i32]* %4, i64 0, i64 %39
  store i32 %37, i32* %40, align 4
  br label %41

41:                                               ; preds = %25
  %42 = load i32, i32* %3, align 4
  %43 = add nsw i32 %42, -1
  store i32 %43, i32* %3, align 4
  br label %21

44:                                               ; preds = %21
  %45 = load i32, i32* %2, align 4
  %46 = load i32, i32* %1, align 4
  %47 = sdiv i32 %46, 2
  %48 = add nsw i32 %47, 1
  %49 = icmp eq i32 %45, %48
  br i1 %49, label %50, label %58

50:                                               ; preds = %44
  %51 = load i32, i32* %1, align 4
  %52 = load i32, i32* %2, align 4
  %53 = sub nsw i32 %51, %52
  %54 = sext i32 %53 to i64
  %55 = getelementptr inbounds [50 x i32], [50 x i32]* %4, i64 0, i64 %54
  %56 = load i32, i32* %55, align 4
  %57 = getelementptr inbounds [50 x i32], [50 x i32]* %4, i64 0, i64 0
  store i32 %56, i32* %57, align 16
  br label %71

58:                                               ; preds = %44
  %59 = getelementptr inbounds [50 x i32], [50 x i32]* %4, i64 0, i64 0
  %60 = load i32, i32* %59, align 16
  %61 = mul nsw i32 %60, 100
  %62 = load i32, i32* %1, align 4
  %63 = load i32, i32* %2, align 4
  %64 = sub nsw i32 %62, %63
  %65 = sext i32 %64 to i64
  %66 = getelementptr inbounds [50 x i32], [50 x i32]* %4, i64 0, i64 %65
  %67 = load i32, i32* %66, align 4
  %68 = sdiv i32 %67, 100
  %69 = add nsw i32 %61, %68
  %70 = getelementptr inbounds [50 x i32], [50 x i32]* %4, i64 0, i64 0
  store i32 %69, i32* %70, align 16
  br label %71

71:                                               ; preds = %58, %50
  store i32 1, i32* %3, align 4
  br label %72

72:                                               ; preds = %95, %71
  %73 = load i32, i32* %3, align 4
  %74 = load i32, i32* %2, align 4
  %75 = icmp slt i32 %73, %74
  br i1 %75, label %76, label %98

76:                                               ; preds = %72
  %77 = load i32, i32* %3, align 4
  %78 = sext i32 %77 to i64
  %79 = getelementptr inbounds [50 x i32], [50 x i32]* %4, i64 0, i64 %78
  %80 = load i32, i32* %79, align 4
  %81 = mul nsw i32 %80, 100
  %82 = load i32, i32* %1, align 4
  %83 = load i32, i32* %2, align 4
  %84 = sub nsw i32 %82, %83
  %85 = load i32, i32* %3, align 4
  %86 = add nsw i32 %84, %85
  %87 = sext i32 %86 to i64
  %88 = getelementptr inbounds [50 x i32], [50 x i32]* %4, i64 0, i64 %87
  %89 = load i32, i32* %88, align 4
  %90 = sdiv i32 %89, 100
  %91 = add nsw i32 %81, %90
  %92 = load i32, i32* %3, align 4
  %93 = sext i32 %92 to i64
  %94 = getelementptr inbounds [50 x i32], [50 x i32]* %4, i64 0, i64 %93
  store i32 %91, i32* %94, align 4
  br label %95

95:                                               ; preds = %76
  %96 = load i32, i32* %3, align 4
  %97 = add nsw i32 %96, 1
  store i32 %97, i32* %3, align 4
  br label %72

98:                                               ; preds = %72
  store i32 0, i32* %3, align 4
  br label %99

99:                                               ; preds = %117, %98
  %100 = load i32, i32* %3, align 4
  %101 = load i32, i32* %1, align 4
  %102 = icmp slt i32 %100, %101
  br i1 %102, label %103, label %120

103:                                              ; preds = %99
  %104 = load i32, i32* %3, align 4
  %105 = sext i32 %104 to i64
  %106 = getelementptr inbounds [50 x i32], [50 x i32]* %4, i64 0, i64 %105
  %107 = load i32, i32* %106, align 4
  %108 = srem i32 %107, 100
  %109 = call i32 (i8*, ...) @printf(i8* getelementptr inbounds ([3 x i8], [3 x i8]* @.str.1, i64 0, i64 0), i32 %108)
  %110 = load i32, i32* %3, align 4
  %111 = load i32, i32* %1, align 4
  %112 = sub nsw i32 %111, 1
  %113 = icmp ne i32 %110, %112
  br i1 %113, label %114, label %116

114:                                              ; preds = %103
  %115 = call i32 (i8*, ...) @printf(i8* getelementptr inbounds ([2 x i8], [2 x i8]* @.str.2, i64 0, i64 0))
  br label %116

116:                                              ; preds = %114, %103
  br label %117

117:                                              ; preds = %116
  %118 = load i32, i32* %3, align 4
  %119 = add nsw i32 %118, 1
  store i32 %119, i32* %3, align 4
  br label %99

120:                                              ; preds = %99
  ret void
}

declare dso_local i32 @__isoc99_scanf(i8*, ...) #1

declare dso_local i32 @printf(i8*, ...) #1


!llvm.module.flags = !{!0}
!llvm.ident = !{!1}

!0 = !{i32 1, !"wchar_size", i32 4}
!1 = !{!"clang version 10.0.0-4ubuntu1 "}
